target datalayout = "e-m:e-p270:32:32-p271:32:32-p272:64:64-i64:64-i128:128-f80:128-n8:16:32:64-S128"
target triple = "x86_64-pc-linux-gnu"

%struct.SDL_AudioQueue = type { ptr, ptr, ptr, i64, i64, %struct.SDL_MemoryPool, %struct.SDL_MemoryPool }
%struct.SDL_MemoryPool = type { ptr, i64, i64, i64 }
%struct.SDL_AudioTrack = type { %struct.SDL_AudioSpec, ptr, i8, ptr, ptr, ptr, ptr, i64, i64, i64, [8 x i32] }
%struct.SDL_AudioSpec = type { i32, i32, i32 }

; Function Attrs: nounwind uwtable
define hidden zeroext i1 @SDL_ResetAudioQueueHistory(ptr noundef %0, i32 noundef %1) #0 {
  %3 = alloca i1, align 1
  %4 = alloca ptr, align 8
  %5 = alloca i32, align 4
  %6 = alloca ptr, align 8
  %7 = alloca i32, align 4
  %8 = alloca i64, align 8
  %9 = alloca ptr, align 8
  store ptr %0, ptr %4, align 8
  store i32 %1, ptr %5, align 4
  call void @llvm.lifetime.start.p0(i64 8, ptr %6) #6
  %10 = load ptr, ptr %4, align 8
  %11 = getelementptr inbounds nuw %struct.SDL_AudioQueue, ptr %10, i32 0, i32 0
  %12 = load ptr, ptr %11, align 8
  store ptr %12, ptr %6, align 8
  %13 = load ptr, ptr %6, align 8
  %14 = icmp ne ptr %13, null
  br i1 %14, label %16, label %15

15:                                               ; preds = %2
  store i1 false, ptr %3, align 1
  store i32 1, ptr %7, align 4
  br label %69

16:                                               ; preds = %2
  call void @llvm.lifetime.start.p0(i64 8, ptr %8) #6
  %17 = load i32, ptr %5, align 4
  %18 = load ptr, ptr %6, align 8
  %19 = getelementptr inbounds nuw %struct.SDL_AudioTrack, ptr %18, i32 0, i32 0
  %20 = getelementptr inbounds nuw %struct.SDL_AudioSpec, ptr %19, i32 0, i32 0
  %21 = load i32, ptr %20, align 8
  %22 = and i32 %21, 255
  %23 = udiv i32 %22, 8
  %24 = load ptr, ptr %6, align 8
  %25 = getelementptr inbounds nuw %struct.SDL_AudioTrack, ptr %24, i32 0, i32 0
  %26 = getelementptr inbounds nuw %struct.SDL_AudioSpec, ptr %25, i32 0, i32 1
  %27 = load i32, ptr %26, align 4
  %28 = mul i32 %23, %27
  %29 = mul i32 %17, %28
  %30 = zext i32 %29 to i64
  store i64 %30, ptr %8, align 8
  call void @llvm.lifetime.start.p0(i64 8, ptr %9) #6
  %31 = load ptr, ptr %4, align 8
  %32 = getelementptr inbounds nuw %struct.SDL_AudioQueue, ptr %31, i32 0, i32 2
  %33 = load ptr, ptr %32, align 8
  store ptr %33, ptr %9, align 8
  %34 = load ptr, ptr %4, align 8
  %35 = getelementptr inbounds nuw %struct.SDL_AudioQueue, ptr %34, i32 0, i32 4
  %36 = load i64, ptr %35, align 8
  %37 = load i64, ptr %8, align 8
  %38 = icmp ult i64 %36, %37
  br i1 %38, label %39, label %56

39:                                               ; preds = %16
  %40 = call i64 @SDL_GetSIMDAlignment_REAL()
  %41 = load i64, ptr %8, align 8
  %42 = call noalias ptr @SDL_aligned_alloc_REAL(i64 noundef %40, i64 noundef %41)
  store ptr %42, ptr %9, align 8
  %43 = load ptr, ptr %9, align 8
  %44 = icmp ne ptr %43, null
  br i1 %44, label %46, label %45

45:                                               ; preds = %39
  store i1 false, ptr %3, align 1
  store i32 1, ptr %7, align 4
  br label %68

46:                                               ; preds = %39
  %47 = load ptr, ptr %4, align 8
  %48 = getelementptr inbounds nuw %struct.SDL_AudioQueue, ptr %47, i32 0, i32 2
  %49 = load ptr, ptr %48, align 8
  call void @SDL_aligned_free_REAL(ptr noundef %49)
  %50 = load ptr, ptr %9, align 8
  %51 = load ptr, ptr %4, align 8
  %52 = getelementptr inbounds nuw %struct.SDL_AudioQueue, ptr %51, i32 0, i32 2
  store ptr %50, ptr %52, align 8
  %53 = load i64, ptr %8, align 8
  %54 = load ptr, ptr %4, align 8
  %55 = getelementptr inbounds nuw %struct.SDL_AudioQueue, ptr %54, i32 0, i32 4
  store i64 %53, ptr %55, align 8
  br label %56

56:                                               ; preds = %46, %16
  %57 = load i64, ptr %8, align 8
  %58 = load ptr, ptr %4, align 8
  %59 = getelementptr inbounds nuw %struct.SDL_AudioQueue, ptr %58, i32 0, i32 3
  store i64 %57, ptr %59, align 8
  %60 = load ptr, ptr %9, align 8
  %61 = load ptr, ptr %6, align 8
  %62 = getelementptr inbounds nuw %struct.SDL_AudioTrack, ptr %61, i32 0, i32 0
  %63 = getelementptr inbounds nuw %struct.SDL_AudioSpec, ptr %62, i32 0, i32 0
  %64 = load i32, ptr %63, align 8
  %65 = call i32 @SDL_GetSilenceValueForFormat_REAL(i32 noundef %64)
  %66 = trunc i32 %65 to i8
  %67 = load i64, ptr %8, align 8
  call void @llvm.memset.p0.i64(ptr align 1 %60, i8 %66, i64 %67, i1 false)
  store i1 true, ptr %3, align 1
  store i32 1, ptr %7, align 4
  br label %68

68:                                               ; preds = %56, %45
  call void @llvm.lifetime.end.p0(i64 8, ptr %9) #6
  call void @llvm.lifetime.end.p0(i64 8, ptr %8) #6
  br label %69

69:                                               ; preds = %68, %15
  call void @llvm.lifetime.end.p0(i64 8, ptr %6) #6
  %70 = load i1, ptr %3, align 1
  ret i1 %70
}