; Function Attrs: nounwind uwtable
define hidden noundef zeroext i1 @SDL_ResetAudioQueueHistory(ptr noundef captures(none) %0, i32 noundef %1) local_unnamed_addr #0 {
  %3 = load ptr, ptr %0, align 8
  %.not = icmp eq ptr %3, null
  br i1 %.not, label %28, label %4

4:                                                ; preds = %2
  %5 = load i32, ptr %3, align 8
  %6 = lshr i32 %5, 3
  %7 = and i32 %6, 31
  %8 = getelementptr inbounds nuw i8, ptr %3, i64 4
  %9 = load i32, ptr %8, align 4
  %10 = mul i32 %9, %1
  %11 = mul i32 %10, %7
  %12 = zext i32 %11 to i64
  %13 = getelementptr inbounds nuw i8, ptr %0, i64 16
  %14 = load ptr, ptr %13, align 8
  %15 = getelementptr inbounds nuw i8, ptr %0, i64 32
  %16 = load i64, ptr %15, align 8
  %17 = icmp ult i64 %16, %12
  br i1 %17, label %18, label %23

18:                                               ; preds = %4
  %19 = tail call i64 @SDL_GetSIMDAlignment_REAL() #10
  %20 = tail call noalias ptr @SDL_aligned_alloc_REAL(i64 noundef %19, i64 noundef %12) #10
  %.not24 = icmp eq ptr %20, null
  br i1 %.not24, label %28, label %21

21:                                               ; preds = %18
  %22 = load ptr, ptr %13, align 8
  tail call void @SDL_aligned_free_REAL(ptr noundef %22) #10
  store ptr %20, ptr %13, align 8
  store i64 %12, ptr %15, align 8
  br label %23

23:                                               ; preds = %21, %4
  %.0 = phi ptr [ %20, %21 ], [ %14, %4 ]
  %24 = getelementptr inbounds nuw i8, ptr %0, i64 24
  store i64 %12, ptr %24, align 8
  %25 = load i32, ptr %3, align 8
  %26 = tail call i32 @SDL_GetSilenceValueForFormat_REAL(i32 noundef %25) #10
  %27 = trunc i32 %26 to i8
  tail call void @llvm.memset.p0.i64(ptr align 1 %.0, i8 %27, i64 %12, i1 false)
  br label %28

28:                                               ; preds = %23, %18, %2
  %.020 = phi i1 [ false, %2 ], [ true, %23 ], [ false, %18 ]
  ret i1 %.020
}